; Function Attrs: mustprogress uwtable
define void @_ZN3gmx4Bias28doSkippedUpdatesForAllPointsEv(ptr noundef nonnull align 8 dereferenceable(556) %0) local_unnamed_addr #0 align 2 {
  %2 = getelementptr inbounds i8, ptr %0, i64 208
  %3 = load i8, ptr %2, align 8
  %4 = trunc i8 %3 to i1
  %5 = getelementptr inbounds i8, ptr %0, i64 160
  %6 = load double, ptr %5, align 8
  %7 = fcmp une double %6, 1.000000e+00
  %.not1 = select i1 %4, i1 true, i1 %7
  br i1 %.not1, label %11, label %8

8:                                                ; preds = %1
  %9 = getelementptr inbounds i8, ptr %0, i64 72
  %10 = getelementptr inbounds i8, ptr %0, i64 216
  tail call void @_ZN3gmx9BiasState28doSkippedUpdatesForAllPointsERKNS_10BiasParamsE(ptr noundef nonnull align 8 dereferenceable(216) %10, ptr noundef nonnull align 8 dereferenceable(137) %9)
  br label %11

11:                                               ; preds = %8, %1
  ret void
}